; Function Attrs: mustprogress nounwind uwtable
define dso_local void @_ZN5clang4ento14SymbolicRegion13ProfileRegionERN4llvm16FoldingSetNodeIDEPKNS0_7SymExprEPKNS0_9MemRegionE(ptr noundef nonnull align 8 dereferenceable(144) %0, ptr noundef %1, ptr noundef %2) local_unnamed_addr #3 align 2 {
  %4 = tail call noundef i64 @_ZNK4llvm15SmallVectorBaseIjE4sizeEv(ptr noundef nonnull align 8 dereferenceable(16) %0) #20
  %5 = add i64 %4, 1
  %6 = tail call noundef i64 @_ZNK4llvm15SmallVectorBaseIjE8capacityEv(ptr noundef nonnull align 8 dereferenceable(16) %0) #20
  %.not.i.i.i.i = icmp ugt i64 %5, %6
  br i1 %.not.i.i.i.i, label %7, label %_ZN4llvm16FoldingSetNodeID10AddIntegerEj.exit

7:                                                ; preds = %3
  %8 = getelementptr inbounds i8, ptr %0, i64 16
  tail call void @_ZN4llvm15SmallVectorBaseIjE8grow_podEPvmm(ptr noundef nonnull align 8 dereferenceable(16) %0, ptr noundef nonnull %8, i64 noundef %5, i64 noundef 4) #20
  br label %_ZN4llvm16FoldingSetNodeID10AddIntegerEj.exit

_ZN4llvm16FoldingSetNodeID10AddIntegerEj.exit:    ; preds = %3, %7
  %9 = load ptr, ptr %0, align 8
  %10 = tail call noundef i64 @_ZNK4llvm15SmallVectorBaseIjE4sizeEv(ptr noundef nonnull align 8 dereferenceable(16) %0) #20
  %11 = getelementptr inbounds i32, ptr %9, i64 %10
  store i32 10, ptr %11, align 1
  %12 = tail call noundef i64 @_ZNK4llvm15SmallVectorBaseIjE4sizeEv(ptr noundef nonnull align 8 dereferenceable(16) %0) #20
  %13 = add i64 %12, 1
  tail call void @_ZN4llvm15SmallVectorBaseIjE8set_sizeEm(ptr noundef nonnull align 8 dereferenceable(16) %0, i64 noundef %13) #20
  %14 = ptrtoint ptr %1 to i64
  tail call void @_ZN4llvm16FoldingSetNodeID10AddIntegerEy(ptr noundef nonnull align 8 dereferenceable(144) %0, i64 noundef %14)
  %15 = ptrtoint ptr %2 to i64
  tail call void @_ZN4llvm16FoldingSetNodeID10AddIntegerEy(ptr noundef nonnull align 8 dereferenceable(144) %0, i64 noundef %15)
  ret void
}